target datalayout = "e-m:e-p270:32:32-p271:32:32-p272:64:64-i64:64-i128:128-f80:128-n8:16:32:64-S128"
target triple = "x86_64-pc-linux-gnu"

%"class.llvm::pdb::InfoStream" = type { %"class.std::unique_ptr", ptr, %"struct.llvm::BinarySubstreamRef", %"class.std::vector", i32, i32, %"class.llvm::pdb::NamedStreamMap" }
%"class.std::unique_ptr" = type { %"struct.std::__uniq_ptr_data" }
%"struct.std::__uniq_ptr_data" = type { %"class.std::__uniq_ptr_impl" }
%"class.std::__uniq_ptr_impl" = type { %"class.std::tuple" }
%"class.std::tuple" = type { %"struct.std::_Tuple_impl" }
%"struct.std::_Tuple_impl" = type { %"struct.std::_Head_base.1" }
%"struct.std::_Head_base.1" = type { ptr }
%"struct.llvm::BinarySubstreamRef" = type { i64, %"class.llvm::BinaryStreamRef" }
%"class.llvm::BinaryStreamRef" = type { %"class.llvm::BinaryStreamRefBase" }
%"class.llvm::BinaryStreamRefBase" = type { %"class.std::shared_ptr", ptr, i64, %"class.std::optional" }
%"class.std::shared_ptr" = type { %"class.std::__shared_ptr" }
%"class.std::__shared_ptr" = type { ptr, %"class.std::__shared_count" }
%"class.std::__shared_count" = type { ptr }
%"class.std::optional" = type { %"struct.std::_Optional_base" }
%"struct.std::_Optional_base" = type { %"struct.std::_Optional_payload" }
%"struct.std::_Optional_payload" = type { %"struct.std::_Optional_payload_base.base", [7 x i8] }
%"struct.std::_Optional_payload_base.base" = type <{ %"union.std::_Optional_payload_base<unsigned long>::_Storage", i8 }>
%"union.std::_Optional_payload_base<unsigned long>::_Storage" = type { i64 }
%"class.std::vector" = type { %"struct.std::_Vector_base" }
%"struct.std::_Vector_base" = type { %"struct.std::_Vector_base<llvm::pdb::PdbRaw_FeatureSig, std::allocator<llvm::pdb::PdbRaw_FeatureSig>>::_Vector_impl" }
%"struct.std::_Vector_base<llvm::pdb::PdbRaw_FeatureSig, std::allocator<llvm::pdb::PdbRaw_FeatureSig>>::_Vector_impl" = type { %"struct.std::_Vector_base<llvm::pdb::PdbRaw_FeatureSig, std::allocator<llvm::pdb::PdbRaw_FeatureSig>>::_Vector_impl_data" }
%"struct.std::_Vector_base<llvm::pdb::PdbRaw_FeatureSig, std::allocator<llvm::pdb::PdbRaw_FeatureSig>>::_Vector_impl_data" = type { ptr, ptr, ptr }
%"class.llvm::pdb::NamedStreamMap" = type { %"struct.llvm::pdb::NamedStreamMapTraits", %"class.llvm::pdb::HashTable", %"class.std::vector.10" }
%"struct.llvm::pdb::NamedStreamMapTraits" = type { ptr }
%"class.llvm::pdb::HashTable" = type { %"class.std::vector.2", %"class.llvm::SparseBitVector", %"class.llvm::SparseBitVector" }
%"class.std::vector.2" = type { %"struct.std::_Vector_base.3" }
%"struct.std::_Vector_base.3" = type { %"struct.std::_Vector_base<std::pair<unsigned int, llvm::support::detail::packed_endian_specific_integral<unsigned int, llvm::endianness::little, 1>>, std::allocator<std::pair<unsigned int, llvm::support::detail::packed_endian_specific_integral<unsigned int, llvm::endianness::little, 1>>>>::_Vector_impl" }
%"struct.std::_Vector_base<std::pair<unsigned int, llvm::support::detail::packed_endian_specific_integral<unsigned int, llvm::endianness::little, 1>>, std::allocator<std::pair<unsigned int, llvm::support::detail::packed_endian_specific_integral<unsigned int, llvm::endianness::little, 1>>>>::_Vector_impl" = type { %"struct.std::_Vector_base<std::pair<unsigned int, llvm::support::detail::packed_endian_specific_integral<unsigned int, llvm::endianness::little, 1>>, std::allocator<std::pair<unsigned int, llvm::support::detail::packed_endian_specific_integral<unsigned int, llvm::endianness::little, 1>>>>::_Vector_impl_data" }
%"struct.std::_Vector_base<std::pair<unsigned int, llvm::support::detail::packed_endian_specific_integral<unsigned int, llvm::endianness::little, 1>>, std::allocator<std::pair<unsigned int, llvm::support::detail::packed_endian_specific_integral<unsigned int, llvm::endianness::little, 1>>>>::_Vector_impl_data" = type { ptr, ptr, ptr }
%"class.llvm::SparseBitVector" = type { %"class.std::__cxx11::list", %"struct.std::_List_iterator" }
%"class.std::__cxx11::list" = type { %"class.std::__cxx11::_List_base" }
%"class.std::__cxx11::_List_base" = type { %"struct.std::__cxx11::_List_base<llvm::SparseBitVectorElement<>, std::allocator<llvm::SparseBitVectorElement<>>>::_List_impl" }
%"struct.std::__cxx11::_List_base<llvm::SparseBitVectorElement<>, std::allocator<llvm::SparseBitVectorElement<>>>::_List_impl" = type { %"struct.std::__detail::_List_node_header" }
%"struct.std::__detail::_List_node_header" = type { %"struct.std::__detail::_List_node_base", i64 }
%"struct.std::__detail::_List_node_base" = type { ptr, ptr }
%"struct.std::_List_iterator" = type { ptr }
%"class.std::vector.10" = type { %"struct.std::_Vector_base.11" }
%"struct.std::_Vector_base.11" = type { %"struct.std::_Vector_base<char, std::allocator<char>>::_Vector_impl" }
%"struct.std::_Vector_base<char, std::allocator<char>>::_Vector_impl" = type { %"struct.std::_Vector_base<char, std::allocator<char>>::_Vector_impl_data" }
%"struct.std::_Vector_base<char, std::allocator<char>>::_Vector_impl_data" = type { ptr, ptr, ptr }
%"struct.llvm::pdb::InfoStreamHeader" = type { %"struct.llvm::support::detail::packed_endian_specific_integral", %"struct.llvm::support::detail::packed_endian_specific_integral", %"struct.llvm::support::detail::packed_endian_specific_integral", %"struct.llvm::codeview::GUID" }
%"struct.llvm::support::detail::packed_endian_specific_integral" = type { %struct.anon }
%struct.anon = type { [4 x i8] }
%"struct.llvm::codeview::GUID" = type { [16 x i8] }

; Function Attrs: mustprogress nounwind uwtable
define dso_local { i64, i64 } @_ZNK4llvm3pdb10InfoStream7getGuidEv(ptr noundef nonnull align 8 dereferenceable(224) %0) #0 align 2 {
  %2 = alloca %"struct.llvm::codeview::GUID", align 1
  %3 = alloca ptr, align 8
  store ptr %0, ptr %3, align 8
  %4 = load ptr, ptr %3, align 8
  %5 = getelementptr inbounds nuw %"class.llvm::pdb::InfoStream", ptr %4, i32 0, i32 1
  %6 = load ptr, ptr %5, align 8
  %7 = getelementptr inbounds nuw %"struct.llvm::pdb::InfoStreamHeader", ptr %6, i32 0, i32 3
  call void @llvm.memcpy.p0.p0.i64(ptr align 1 %2, ptr align 1 %7, i64 16, i1 false)
  %8 = getelementptr inbounds nuw %"struct.llvm::codeview::GUID", ptr %2, i32 0, i32 0
  %9 = load { i64, i64 }, ptr %8, align 1
  ret { i64, i64 } %9
}